target datalayout = "e-m:e-p270:32:32-p271:32:32-p272:64:64-i64:64-i128:128-f80:128-n8:16:32:64-S128"
target triple = "x86_64-pc-linux-gnu"

%"class.icu_77::UnicodeString" = type { %"class.icu_77::Replaceable", %"union.icu_77::UnicodeString::StackBufferOrFields" }
%"class.icu_77::Replaceable" = type { %"class.icu_77::UObject" }
%"class.icu_77::UObject" = type { ptr }
%"union.icu_77::UnicodeString::StackBufferOrFields" = type { %struct.anon.0, [32 x i8] }
%struct.anon.0 = type { i16, i32, i32, ptr }
%struct.anon = type { i16, [27 x i16] }
%"class.icu_77::TimeZoneFormat" = type { %"class.icu_77::Format", %"class.icu_77::Locale", [4 x i8], ptr, ptr, %"class.icu_77::UnicodeString", [6 x %"class.icu_77::UnicodeString"], [10 x i32], %"class.icu_77::UnicodeString", i32, %"class.icu_77::UnicodeString", %"class.icu_77::UnicodeString", [6 x ptr], i8, ptr }
%"class.icu_77::Format" = type { %"class.icu_77::UObject", ptr, ptr }
%"class.icu_77::Locale" = type <{ %"class.icu_77::UObject", [12 x i8], [6 x i8], [4 x i8], [2 x i8], i32, [4 x i8], ptr, [157 x i8], [3 x i8], ptr, i8, [7 x i8] }>

; Function Attrs: inlinehint mustprogress nounwind uwtable
define linkonce_odr noundef ptr @_ZNK6icu_7713UnicodeString13getArrayStartEv(ptr noundef nonnull align 8 dereferenceable(64) %0) #2 comdat align 2 {
  %2 = alloca ptr, align 8
  store ptr %0, ptr %2, align 8, !tbaa !33
  %3 = load ptr, ptr %2, align 8
  %4 = getelementptr inbounds nuw %"class.icu_77::UnicodeString", ptr %3, i32 0, i32 1
  %5 = getelementptr inbounds nuw %struct.anon.0, ptr %4, i32 0, i32 0
  %6 = load i16, ptr %5, align 8, !tbaa !37
  %7 = sext i16 %6 to i32
  %8 = and i32 %7, 2
  %9 = icmp ne i32 %8, 0
  br i1 %9, label %10, label %14

10:                                               ; preds = %1
  %11 = getelementptr inbounds nuw %"class.icu_77::UnicodeString", ptr %3, i32 0, i32 1
  %12 = getelementptr inbounds nuw %struct.anon, ptr %11, i32 0, i32 1
  %13 = getelementptr inbounds [27 x i16], ptr %12, i64 0, i64 0
  br label %18

14:                                               ; preds = %1
  %15 = getelementptr inbounds nuw %"class.icu_77::UnicodeString", ptr %3, i32 0, i32 1
  %16 = getelementptr inbounds nuw %struct.anon.0, ptr %15, i32 0, i32 3
  %17 = load ptr, ptr %16, align 8, !tbaa !37
  br label %18

18:                                               ; preds = %14, %10
  %19 = phi ptr [ %13, %10 ], [ %17, %14 ]
  ret ptr %19
}

; Function Attrs: inlinehint mustprogress uwtable
define linkonce_odr void @_ZNK6icu_7713UnicodeString10pinIndicesERiS1_(ptr noundef nonnull align 8 dereferenceable(64) %0, ptr noundef nonnull align 4 dereferenceable(4) %1, ptr noundef nonnull align 4 dereferenceable(4) %2) #3 comdat align 2 {
  %4 = alloca ptr, align 8
  %5 = alloca ptr, align 8
  %6 = alloca ptr, align 8
  %7 = alloca i32, align 4
  store ptr %0, ptr %4, align 8, !tbaa !33
  store ptr %1, ptr %5, align 8, !tbaa !20
  store ptr %2, ptr %6, align 8, !tbaa !20
  %8 = load ptr, ptr %4, align 8
  call void @llvm.lifetime.start.p0(i64 4, ptr %7) #15
  %9 = call noundef i32 @_ZNK6icu_7713UnicodeString6lengthEv(ptr noundef nonnull align 8 dereferenceable(64) %8)
  store i32 %9, ptr %7, align 4, !tbaa !14
  %10 = load ptr, ptr %5, align 8, !tbaa !20
  %11 = load i32, ptr %10, align 4, !tbaa !14
  %12 = icmp slt i32 %11, 0
  br i1 %12, label %13, label %15

13:                                               ; preds = %3
  %14 = load ptr, ptr %5, align 8, !tbaa !20
  store i32 0, ptr %14, align 4, !tbaa !14
  br label %24

15:                                               ; preds = %3
  %16 = load ptr, ptr %5, align 8, !tbaa !20
  %17 = load i32, ptr %16, align 4, !tbaa !14
  %18 = load i32, ptr %7, align 4, !tbaa !14
  %19 = icmp sgt i32 %17, %18
  br i1 %19, label %20, label %23

20:                                               ; preds = %15
  %21 = load i32, ptr %7, align 4, !tbaa !14
  %22 = load ptr, ptr %5, align 8, !tbaa !20
  store i32 %21, ptr %22, align 4, !tbaa !14
  br label %23

23:                                               ; preds = %20, %15
  br label %24

24:                                               ; preds = %23, %13
  %25 = load ptr, ptr %6, align 8, !tbaa !20
  %26 = load i32, ptr %25, align 4, !tbaa !14
  %27 = icmp slt i32 %26, 0
  br i1 %27, label %28, label %30

28:                                               ; preds = %24
  %29 = load ptr, ptr %6, align 8, !tbaa !20
  store i32 0, ptr %29, align 4, !tbaa !14
  br label %45

30:                                               ; preds = %24
  %31 = load ptr, ptr %6, align 8, !tbaa !20
  %32 = load i32, ptr %31, align 4, !tbaa !14
  %33 = load i32, ptr %7, align 4, !tbaa !14
  %34 = load ptr, ptr %5, align 8, !tbaa !20
  %35 = load i32, ptr %34, align 4, !tbaa !14
  %36 = sub nsw i32 %33, %35
  %37 = icmp sgt i32 %32, %36
  br i1 %37, label %38, label %44

38:                                               ; preds = %30
  %39 = load i32, ptr %7, align 4, !tbaa !14
  %40 = load ptr, ptr %5, align 8, !tbaa !20
  %41 = load i32, ptr %40, align 4, !tbaa !14
  %42 = sub nsw i32 %39, %41
  %43 = load ptr, ptr %6, align 8, !tbaa !20
  store i32 %42, ptr %43, align 4, !tbaa !14
  br label %44

44:                                               ; preds = %38, %30
  br label %45

45:                                               ; preds = %44, %28
  call void @llvm.lifetime.end.p0(i64 4, ptr %7) #15
  ret void
}

; Function Attrs: inlinehint mustprogress nounwind uwtable
define linkonce_odr noundef signext i8 @_ZNK6icu_7713UnicodeString7isBogusEv(ptr noundef nonnull align 8 dereferenceable(64) %0) #2 comdat align 2 {
  %2 = alloca ptr, align 8
  store ptr %0, ptr %2, align 8, !tbaa !33
  %3 = load ptr, ptr %2, align 8
  %4 = getelementptr inbounds nuw %"class.icu_77::UnicodeString", ptr %3, i32 0, i32 1
  %5 = getelementptr inbounds nuw %struct.anon.0, ptr %4, i32 0, i32 0
  %6 = load i16, ptr %5, align 8, !tbaa !37
  %7 = sext i16 %6 to i32
  %8 = and i32 %7, 1
  %9 = trunc i32 %8 to i8
  ret i8 %9
}

; Function Attrs: inlinehint mustprogress uwtable
define linkonce_odr noundef signext i8 @_ZNK6icu_7713UnicodeString13doCaseCompareEiiRKS0_iij(ptr noundef nonnull align 8 dereferenceable(64) %0, i32 noundef %1, i32 noundef %2, ptr noundef nonnull align 8 dereferenceable(64) %3, i32 noundef %4, i32 noundef %5, i32 noundef %6) #3 comdat align 2 {
  %8 = alloca i8, align 1
  %9 = alloca ptr, align 8
  %10 = alloca i32, align 4
  %11 = alloca i32, align 4
  %12 = alloca ptr, align 8
  %13 = alloca i32, align 4
  %14 = alloca i32, align 4
  %15 = alloca i32, align 4
  store ptr %0, ptr %9, align 8, !tbaa !33
  store i32 %1, ptr %10, align 4, !tbaa !14
  store i32 %2, ptr %11, align 4, !tbaa !14
  store ptr %3, ptr %12, align 8, !tbaa !33
  store i32 %4, ptr %13, align 4, !tbaa !14
  store i32 %5, ptr %14, align 4, !tbaa !14
  store i32 %6, ptr %15, align 4, !tbaa !14
  %16 = load ptr, ptr %9, align 8
  %17 = load ptr, ptr %12, align 8, !tbaa !33
  %18 = call noundef signext i8 @_ZNK6icu_7713UnicodeString7isBogusEv(ptr noundef nonnull align 8 dereferenceable(64) %17)
  %19 = icmp ne i8 %18, 0
  br i1 %19, label %20, label %25

20:                                               ; preds = %7
  %21 = call noundef signext i8 @_ZNK6icu_7713UnicodeString7isBogusEv(ptr noundef nonnull align 8 dereferenceable(64) %16)
  %22 = icmp ne i8 %21, 0
  %23 = xor i1 %22, true
  %24 = zext i1 %23 to i8
  store i8 %24, ptr %8, align 1
  br label %35

25:                                               ; preds = %7
  %26 = load ptr, ptr %12, align 8, !tbaa !33
  call void @_ZNK6icu_7713UnicodeString10pinIndicesERiS1_(ptr noundef nonnull align 8 dereferenceable(64) %26, ptr noundef nonnull align 4 dereferenceable(4) %13, ptr noundef nonnull align 4 dereferenceable(4) %14)
  %27 = load i32, ptr %10, align 4, !tbaa !14
  %28 = load i32, ptr %11, align 4, !tbaa !14
  %29 = load ptr, ptr %12, align 8, !tbaa !33
  %30 = call noundef ptr @_ZNK6icu_7713UnicodeString13getArrayStartEv(ptr noundef nonnull align 8 dereferenceable(64) %29)
  %31 = load i32, ptr %13, align 4, !tbaa !14
  %32 = load i32, ptr %14, align 4, !tbaa !14
  %33 = load i32, ptr %15, align 4, !tbaa !14
  %34 = call noundef signext i8 @_ZNK6icu_7713UnicodeString13doCaseCompareEiiPKDsiij(ptr noundef nonnull align 8 dereferenceable(64) %16, i32 noundef %27, i32 noundef %28, ptr noundef %30, i32 noundef %31, i32 noundef %32, i32 noundef %33)
  store i8 %34, ptr %8, align 1
  br label %35

35:                                               ; preds = %25, %20
  %36 = load i8, ptr %8, align 1
  ret i8 %36
}

; Function Attrs: inlinehint mustprogress nounwind uwtable
define linkonce_odr noundef i32 @_ZNK6icu_7713UnicodeString14getShortLengthEv(ptr noundef nonnull align 8 dereferenceable(64) %0) #2 comdat align 2 {
  %2 = alloca ptr, align 8
  store ptr %0, ptr %2, align 8, !tbaa !33
  %3 = load ptr, ptr %2, align 8
  %4 = getelementptr inbounds nuw %"class.icu_77::UnicodeString", ptr %3, i32 0, i32 1
  %5 = getelementptr inbounds nuw %struct.anon.0, ptr %4, i32 0, i32 0
  %6 = load i16, ptr %5, align 8, !tbaa !37
  %7 = sext i16 %6 to i32
  %8 = ashr i32 %7, 5
  ret i32 %8
}

; Function Attrs: inlinehint mustprogress nounwind uwtable
define linkonce_odr noundef signext i8 @_ZNK6icu_7713UnicodeString14hasShortLengthEv(ptr noundef nonnull align 8 dereferenceable(64) %0) #2 comdat align 2 {
  %2 = alloca ptr, align 8
  store ptr %0, ptr %2, align 8, !tbaa !33
  %3 = load ptr, ptr %2, align 8
  %4 = getelementptr inbounds nuw %"class.icu_77::UnicodeString", ptr %3, i32 0, i32 1
  %5 = getelementptr inbounds nuw %struct.anon.0, ptr %4, i32 0, i32 0
  %6 = load i16, ptr %5, align 8, !tbaa !37
  %7 = sext i16 %6 to i32
  %8 = icmp sge i32 %7, 0
  %9 = zext i1 %8 to i8
  ret i8 %9
}

; Function Attrs: inlinehint mustprogress uwtable
define linkonce_odr noundef signext i8 @_ZNK6icu_7713UnicodeString11caseCompareEiiRKS0_j(ptr noundef nonnull align 8 dereferenceable(64) %0, i32 noundef %1, i32 noundef %2, ptr noundef nonnull align 8 dereferenceable(64) %3, i32 noundef %4) #3 comdat align 2 {
  %6 = alloca ptr, align 8
  %7 = alloca i32, align 4
  %8 = alloca i32, align 4
  %9 = alloca ptr, align 8
  %10 = alloca i32, align 4
  store ptr %0, ptr %6, align 8, !tbaa !33
  store i32 %1, ptr %7, align 4, !tbaa !14
  store i32 %2, ptr %8, align 4, !tbaa !14
  store ptr %3, ptr %9, align 8, !tbaa !33
  store i32 %4, ptr %10, align 4, !tbaa !14
  %11 = load ptr, ptr %6, align 8
  %12 = load i32, ptr %7, align 4, !tbaa !14
  %13 = load i32, ptr %8, align 4, !tbaa !14
  %14 = load ptr, ptr %9, align 8, !tbaa !33
  %15 = load ptr, ptr %9, align 8, !tbaa !33
  %16 = call noundef i32 @_ZNK6icu_7713UnicodeString6lengthEv(ptr noundef nonnull align 8 dereferenceable(64) %15)
  %17 = load i32, ptr %10, align 4, !tbaa !14
  %18 = call noundef signext i8 @_ZNK6icu_7713UnicodeString13doCaseCompareEiiRKS0_iij(ptr noundef nonnull align 8 dereferenceable(64) %11, i32 noundef %12, i32 noundef %13, ptr noundef nonnull align 8 dereferenceable(64) %14, i32 noundef 0, i32 noundef %16, i32 noundef %17)
  ret i8 %18
}

; Function Attrs: inlinehint mustprogress uwtable
define linkonce_odr noundef i32 @_ZNK6icu_7713UnicodeString6lengthEv(ptr noundef nonnull align 8 dereferenceable(64) %0) #3 comdat align 2 {
  %2 = alloca ptr, align 8
  store ptr %0, ptr %2, align 8, !tbaa !33
  %3 = load ptr, ptr %2, align 8
  %4 = call noundef signext i8 @_ZNK6icu_7713UnicodeString14hasShortLengthEv(ptr noundef nonnull align 8 dereferenceable(64) %3)
  %5 = icmp ne i8 %4, 0
  br i1 %5, label %6, label %8

6:                                                ; preds = %1
  %7 = call noundef i32 @_ZNK6icu_7713UnicodeString14getShortLengthEv(ptr noundef nonnull align 8 dereferenceable(64) %3)
  br label %12

8:                                                ; preds = %1
  %9 = getelementptr inbounds nuw %"class.icu_77::UnicodeString", ptr %3, i32 0, i32 1
  %10 = getelementptr inbounds nuw %struct.anon.0, ptr %9, i32 0, i32 1
  %11 = load i32, ptr %10, align 4, !tbaa !37
  br label %12

12:                                               ; preds = %8, %6
  %13 = phi i32 [ %7, %6 ], [ %11, %8 ]
  ret i32 %13
}

; Function Attrs: mustprogress uwtable
define noundef i32 @_ZNK6icu_7714TimeZoneFormat30parseOffsetLocalizedGMTPatternERKNS_13UnicodeStringEiaRi(ptr noundef nonnull align 8 dereferenceable(1024) %0, ptr noundef nonnull align 8 dereferenceable(64) %1, i32 noundef %2, i8 noundef signext %3, ptr noundef nonnull align 4 dereferenceable(4) %4) #1 align 2 {
  %6 = alloca ptr, align 8
  %7 = alloca ptr, align 8
  %8 = alloca i32, align 4
  %9 = alloca i8, align 1
  %10 = alloca ptr, align 8
  %11 = alloca i32, align 4
  %12 = alloca i32, align 4
  %13 = alloca i8, align 1
  %14 = alloca i32, align 4
  %15 = alloca i32, align 4
  store ptr %0, ptr %6, align 8, !tbaa !39
  store ptr %1, ptr %7, align 8, !tbaa !33
  store i32 %2, ptr %8, align 4, !tbaa !14
  store i8 %3, ptr %9, align 1, !tbaa !37
  store ptr %4, ptr %10, align 8, !tbaa !20
  %16 = load ptr, ptr %6, align 8
  call void @llvm.lifetime.start.p0(i64 4, ptr %11) #15
  %17 = load i32, ptr %8, align 4, !tbaa !14
  store i32 %17, ptr %11, align 4, !tbaa !14
  call void @llvm.lifetime.start.p0(i64 4, ptr %12) #15
  store i32 0, ptr %12, align 4, !tbaa !14
  call void @llvm.lifetime.start.p0(i64 1, ptr %13) #15
  store i8 0, ptr %13, align 1, !tbaa !37
  br label %18

18:                                               ; preds = %5
  call void @llvm.lifetime.start.p0(i64 4, ptr %14) #15
  %19 = getelementptr inbounds nuw %"class.icu_77::TimeZoneFormat", ptr %16, i32 0, i32 10
  %20 = call noundef i32 @_ZNK6icu_7713UnicodeString6lengthEv(ptr noundef nonnull align 8 dereferenceable(64) %19)
  store i32 %20, ptr %14, align 4, !tbaa !14
  %21 = load i32, ptr %14, align 4, !tbaa !14
  %22 = icmp sgt i32 %21, 0
  br i1 %22, label %23, label %32

23:                                               ; preds = %18
  %24 = load ptr, ptr %7, align 8, !tbaa !33
  %25 = load i32, ptr %11, align 4, !tbaa !14
  %26 = load i32, ptr %14, align 4, !tbaa !14
  %27 = getelementptr inbounds nuw %"class.icu_77::TimeZoneFormat", ptr %16, i32 0, i32 10
  %28 = call noundef signext i8 @_ZNK6icu_7713UnicodeString11caseCompareEiiRKS0_j(ptr noundef nonnull align 8 dereferenceable(64) %24, i32 noundef %25, i32 noundef %26, ptr noundef nonnull align 8 dereferenceable(64) %27, i32 noundef 0)
  %29 = sext i8 %28 to i32
  %30 = icmp ne i32 %29, 0
  br i1 %30, label %31, label %32

31:                                               ; preds = %23
  store i32 2, ptr %15, align 4
  br label %63

32:                                               ; preds = %23, %18
  %33 = load i32, ptr %14, align 4, !tbaa !14
  %34 = load i32, ptr %11, align 4, !tbaa !14
  %35 = add nsw i32 %34, %33
  store i32 %35, ptr %11, align 4, !tbaa !14
  %36 = load ptr, ptr %7, align 8, !tbaa !33
  %37 = load i32, ptr %11, align 4, !tbaa !14
  %38 = call noundef i32 @_ZNK6icu_7714TimeZoneFormat17parseOffsetFieldsERKNS_13UnicodeStringEiaRi(ptr noundef nonnull align 8 dereferenceable(1024) %16, ptr noundef nonnull align 8 dereferenceable(64) %36, i32 noundef %37, i8 noundef signext 0, ptr noundef nonnull align 4 dereferenceable(4) %14)
  store i32 %38, ptr %12, align 4, !tbaa !14
  %39 = load i32, ptr %14, align 4, !tbaa !14
  %40 = icmp eq i32 %39, 0
  br i1 %40, label %41, label %42

41:                                               ; preds = %32
  store i32 2, ptr %15, align 4
  br label %63

42:                                               ; preds = %32
  %43 = load i32, ptr %14, align 4, !tbaa !14
  %44 = load i32, ptr %11, align 4, !tbaa !14
  %45 = add nsw i32 %44, %43
  store i32 %45, ptr %11, align 4, !tbaa !14
  %46 = getelementptr inbounds nuw %"class.icu_77::TimeZoneFormat", ptr %16, i32 0, i32 11
  %47 = call noundef i32 @_ZNK6icu_7713UnicodeString6lengthEv(ptr noundef nonnull align 8 dereferenceable(64) %46)
  store i32 %47, ptr %14, align 4, !tbaa !14
  %48 = load i32, ptr %14, align 4, !tbaa !14
  %49 = icmp sgt i32 %48, 0
  br i1 %49, label %50, label %59

50:                                               ; preds = %42
  %51 = load ptr, ptr %7, align 8, !tbaa !33
  %52 = load i32, ptr %11, align 4, !tbaa !14
  %53 = load i32, ptr %14, align 4, !tbaa !14
  %54 = getelementptr inbounds nuw %"class.icu_77::TimeZoneFormat", ptr %16, i32 0, i32 11
  %55 = call noundef signext i8 @_ZNK6icu_7713UnicodeString11caseCompareEiiRKS0_j(ptr noundef nonnull align 8 dereferenceable(64) %51, i32 noundef %52, i32 noundef %53, ptr noundef nonnull align 8 dereferenceable(64) %54, i32 noundef 0)
  %56 = sext i8 %55 to i32
  %57 = icmp ne i32 %56, 0
  br i1 %57, label %58, label %59

58:                                               ; preds = %50
  store i32 2, ptr %15, align 4
  br label %63

59:                                               ; preds = %50, %42
  %60 = load i32, ptr %14, align 4, !tbaa !14
  %61 = load i32, ptr %11, align 4, !tbaa !14
  %62 = add nsw i32 %61, %60
  store i32 %62, ptr %11, align 4, !tbaa !14
  store i8 1, ptr %13, align 1, !tbaa !37
  store i32 0, ptr %15, align 4
  br label %63

63:                                               ; preds = %59, %58, %41, %31
  call void @llvm.lifetime.end.p0(i64 4, ptr %14) #15
  %64 = load i32, ptr %15, align 4
  switch i32 %64, label %79 [
    i32 0, label %65
    i32 2, label %67
  ]

65:                                               ; preds = %63
  br label %66

66:                                               ; preds = %65
  br label %67

67:                                               ; preds = %66, %63
  %68 = load i8, ptr %13, align 1, !tbaa !37
  %69 = icmp ne i8 %68, 0
  br i1 %69, label %70, label %74

70:                                               ; preds = %67
  %71 = load i32, ptr %11, align 4, !tbaa !14
  %72 = load i32, ptr %8, align 4, !tbaa !14
  %73 = sub nsw i32 %71, %72
  br label %75

74:                                               ; preds = %67
  br label %75

75:                                               ; preds = %74, %70
  %76 = phi i32 [ %73, %70 ], [ 0, %74 ]
  %77 = load ptr, ptr %10, align 8, !tbaa !20
  store i32 %76, ptr %77, align 4, !tbaa !14
  %78 = load i32, ptr %12, align 4, !tbaa !14
  store i32 1, ptr %15, align 4
  call void @llvm.lifetime.end.p0(i64 1, ptr %13) #15
  call void @llvm.lifetime.end.p0(i64 4, ptr %12) #15
  call void @llvm.lifetime.end.p0(i64 4, ptr %11) #15
  ret i32 %78

79:                                               ; preds = %63
  unreachable
}