; Function Attrs: mustprogress uwtable
define noundef i32 @_ZNK6icu_7714TimeZoneFormat30parseOffsetLocalizedGMTPatternERKNS_13UnicodeStringEiaRi(ptr noundef nonnull align 8 dereferenceable(1024) %0, ptr noundef nonnull align 8 dereferenceable(64) %1, i32 noundef %2, i8 signext %3, ptr noundef nonnull writeonly align 4 captures(none) dereferenceable(4) initializes((0, 4)) %4) local_unnamed_addr #1 align 2 {
  %6 = alloca i32, align 4
  call void @llvm.lifetime.start.p0(i64 4, ptr nonnull %6) #22
  %7 = getelementptr inbounds nuw i8, ptr %0, i64 840
  %8 = load i16, ptr %7, align 8, !tbaa !23
  %9 = icmp slt i16 %8, 0
  %10 = ashr i16 %8, 5
  %11 = sext i16 %10 to i32
  %12 = getelementptr inbounds nuw i8, ptr %0, i64 844
  %13 = load i32, ptr %12, align 4
  %14 = select i1 %9, i32 %13, i32 %11
  %15 = icmp sgt i32 %14, 0
  br i1 %15, label %16, label %30

16:                                               ; preds = %5
  %17 = and i16 %8, 1
  %.not.i.i = icmp eq i16 %17, 0
  br i1 %.not.i.i, label %.sink.split.i.i.i, label %18

18:                                               ; preds = %16
  %19 = getelementptr inbounds nuw i8, ptr %1, i64 8
  %20 = load i16, ptr %19, align 8, !tbaa !23
  %21 = trunc i16 %20 to i8
  %22 = and i8 %21, 1
  %23 = xor i8 %22, 1
  br label %_ZNK6icu_7713UnicodeString11caseCompareEiiRKS0_j.exit

.sink.split.i.i.i:                                ; preds = %16
  %24 = and i16 %8, 2
  %.not.i.i.i = icmp eq i16 %24, 0
  %25 = getelementptr inbounds nuw i8, ptr %0, i64 842
  %26 = getelementptr inbounds nuw i8, ptr %0, i64 856
  %27 = load ptr, ptr %26, align 8
  %28 = select i1 %.not.i.i.i, ptr %27, ptr %25
  %29 = tail call noundef signext i8 @_ZNK6icu_7713UnicodeString13doCaseCompareEiiPKDsiij(ptr noundef nonnull align 8 dereferenceable(64) %1, i32 noundef %2, i32 noundef %14, ptr noundef %28, i32 noundef 0, i32 noundef %14, i32 noundef 0)
  br label %_ZNK6icu_7713UnicodeString11caseCompareEiiRKS0_j.exit

_ZNK6icu_7713UnicodeString11caseCompareEiiRKS0_j.exit: ; preds = %18, %.sink.split.i.i.i
  %.0.i.i = phi i8 [ %23, %18 ], [ %29, %.sink.split.i.i.i ]
  %.not = icmp eq i8 %.0.i.i, 0
  br i1 %.not, label %30, label %63

30:                                               ; preds = %_ZNK6icu_7713UnicodeString11caseCompareEiiRKS0_j.exit, %5
  %31 = add nsw i32 %14, %2
  %32 = call noundef i32 @_ZNK6icu_7714TimeZoneFormat17parseOffsetFieldsERKNS_13UnicodeStringEiaRi(ptr noundef nonnull align 8 dereferenceable(1024) %0, ptr noundef nonnull align 8 dereferenceable(64) %1, i32 noundef %31, i8 signext poison, ptr noundef nonnull align 4 dereferenceable(4) %6)
  %33 = load i32, ptr %6, align 4, !tbaa !12
  %34 = icmp eq i32 %33, 0
  br i1 %34, label %63, label %35

35:                                               ; preds = %30
  %36 = add nsw i32 %33, %31
  %37 = getelementptr inbounds nuw i8, ptr %0, i64 904
  %38 = load i16, ptr %37, align 8, !tbaa !23
  %39 = icmp slt i16 %38, 0
  %40 = ashr i16 %38, 5
  %41 = sext i16 %40 to i32
  %42 = getelementptr inbounds nuw i8, ptr %0, i64 908
  %43 = load i32, ptr %42, align 4
  %44 = select i1 %39, i32 %43, i32 %41
  %45 = icmp sgt i32 %44, 0
  br i1 %45, label %46, label %60

46:                                               ; preds = %35
  %47 = and i16 %38, 1
  %.not.i.i22 = icmp eq i16 %47, 0
  br i1 %.not.i.i22, label %.sink.split.i.i.i24, label %48

48:                                               ; preds = %46
  %49 = getelementptr inbounds nuw i8, ptr %1, i64 8
  %50 = load i16, ptr %49, align 8, !tbaa !23
  %51 = trunc i16 %50 to i8
  %52 = and i8 %51, 1
  %53 = xor i8 %52, 1
  br label %_ZNK6icu_7713UnicodeString11caseCompareEiiRKS0_j.exit28

.sink.split.i.i.i24:                              ; preds = %46
  %54 = and i16 %38, 2
  %.not.i.i.i27 = icmp eq i16 %54, 0
  %55 = getelementptr inbounds nuw i8, ptr %0, i64 906
  %56 = getelementptr inbounds nuw i8, ptr %0, i64 920
  %57 = load ptr, ptr %56, align 8
  %58 = select i1 %.not.i.i.i27, ptr %57, ptr %55
  %59 = tail call noundef signext i8 @_ZNK6icu_7713UnicodeString13doCaseCompareEiiPKDsiij(ptr noundef nonnull align 8 dereferenceable(64) %1, i32 noundef %36, i32 noundef %44, ptr noundef %58, i32 noundef 0, i32 noundef %44, i32 noundef 0)
  br label %_ZNK6icu_7713UnicodeString11caseCompareEiiRKS0_j.exit28

_ZNK6icu_7713UnicodeString11caseCompareEiiRKS0_j.exit28: ; preds = %48, %.sink.split.i.i.i24
  %.0.i.i23 = phi i8 [ %53, %48 ], [ %59, %.sink.split.i.i.i24 ]
  %.not20 = icmp eq i8 %.0.i.i23, 0
  br i1 %.not20, label %60, label %63

60:                                               ; preds = %35, %_ZNK6icu_7713UnicodeString11caseCompareEiiRKS0_j.exit28
  call void @llvm.lifetime.end.p0(i64 4, ptr nonnull %6) #22
  %61 = add i32 %33, %14
  %62 = add i32 %61, %44
  br label %64

63:                                               ; preds = %_ZNK6icu_7713UnicodeString11caseCompareEiiRKS0_j.exit, %30, %_ZNK6icu_7713UnicodeString11caseCompareEiiRKS0_j.exit28
  %.015.ph = phi i32 [ %32, %_ZNK6icu_7713UnicodeString11caseCompareEiiRKS0_j.exit28 ], [ %32, %30 ], [ 0, %_ZNK6icu_7713UnicodeString11caseCompareEiiRKS0_j.exit ]
  call void @llvm.lifetime.end.p0(i64 4, ptr nonnull %6) #22
  br label %64

64:                                               ; preds = %60, %63
  %.01532 = phi i32 [ %.015.ph, %63 ], [ %32, %60 ]
  %65 = phi i32 [ 0, %63 ], [ %62, %60 ]
  store i32 %65, ptr %4, align 4, !tbaa !12
  ret i32 %.01532
}